---
triple:          'arm64-apple-darwin'
binary-path:     '/Users/tudornitu/Library/Application Support/tmc/vscode/mooc-java-programming-ii/part08-Part08_01.Cubes/src/main/java/output/proiect'
relocations:
  - { offsetInCU: 0x39, offset: 0x39, size: 0x8, addend: 0x0, symName: __ZN6Ticket11ticketCountE, symObjAddr: 0x2E2F8, symBinAddr: 0x10000C004, symSize: 0x0 }
  - { offsetInCU: 0x2F5F, offset: 0x2F5F, size: 0x8, addend: 0x0, symName: __ZNSt3__124__put_character_sequenceB8ue170006IcNS_11char_traitsIcEEEERNS_13basic_ostreamIT_T0_EES7_PKS4_m, symObjAddr: 0x15CC, symBinAddr: 0x10000441C, symSize: 0x1F4 }
  - { offsetInCU: 0x6AB2, offset: 0x6AB2, size: 0x8, addend: 0x0, symName: __ZNSt3__1lsB8ue170006INS_11char_traitsIcEEEERNS_13basic_ostreamIcT_EES6_PKc, symObjAddr: 0x4A4, symBinAddr: 0x1000032F4, symSize: 0x48 }
  - { offsetInCU: 0x6AF8, offset: 0x6AF8, size: 0x8, addend: 0x0, symName: __ZNSt3__17getlineB8ue170006IcNS_11char_traitsIcEENS_9allocatorIcEEEERNS_13basic_istreamIT_T0_EES9_RNS_12basic_stringIS6_S7_T1_EE, symObjAddr: 0x564, symBinAddr: 0x1000033B4, symSize: 0x5C }
  - { offsetInCU: 0x6B50, offset: 0x6B50, size: 0x8, addend: 0x0, symName: __ZNSt3__1rsB8ue170006IcNS_11char_traitsIcEENS_9allocatorIcEEEERNS_13basic_istreamIT_T0_EES9_RNS_12basic_stringIS6_S7_T1_EE, symObjAddr: 0x5C0, symBinAddr: 0x100003410, symSize: 0x310 }
  - { offsetInCU: 0x6C1D, offset: 0x6C1D, size: 0x8, addend: 0x0, symName: __ZNSt3__1lsB8ue170006IcNS_11char_traitsIcEENS_9allocatorIcEEEERNS_13basic_ostreamIT_T0_EES9_RKNS_12basic_stringIS6_S7_T1_EE, symObjAddr: 0xA08, symBinAddr: 0x100003858, symSize: 0x4C }
  - { offsetInCU: 0x6C75, offset: 0x6C75, size: 0x8, addend: 0x0, symName: __ZNSt3__1neB8ue170006IP6TicketEEbRKNS_11__wrap_iterIT_EES7_, symObjAddr: 0xB04, symBinAddr: 0x100003954, symSize: 0x34 }
  - { offsetInCU: 0x6CB8, offset: 0x6CB8, size: 0x8, addend: 0x0, symName: __ZNSt3__130__libcpp_is_constant_evaluatedB8ue170006Ev, symObjAddr: 0x123C, symBinAddr: 0x10000408C, symSize: 0xC }
  - { offsetInCU: 0x6CD5, offset: 0x6CD5, size: 0x8, addend: 0x0, symName: __ZNSt3__117__libcpp_allocateB8ue170006Emm, symObjAddr: 0x1534, symBinAddr: 0x100004384, symSize: 0x28 }
  - { offsetInCU: 0x6D12, offset: 0x6D12, size: 0x8, addend: 0x0, symName: __ZNSt3__121__libcpp_operator_newB8ue170006IJmEEEPvDpT_, symObjAddr: 0x1570, symBinAddr: 0x1000043C0, symSize: 0x24 }
  - { offsetInCU: 0x6D4B, offset: 0x6D4B, size: 0x8, addend: 0x0, symName: __ZNSt3__116__pad_and_outputB8ue170006IcNS_11char_traitsIcEEEENS_19ostreambuf_iteratorIT_T0_EES6_PKS4_S8_S8_RNS_8ios_baseES4_, symObjAddr: 0x1824, symBinAddr: 0x100004674, symSize: 0x248 }
  - { offsetInCU: 0x6E1A, offset: 0x6E1A, size: 0x8, addend: 0x0, symName: __ZNSt3__112__to_addressB8ue170006IKcEEPT_S3_, symObjAddr: 0x1C9C, symBinAddr: 0x100004AEC, symSize: 0x14 }
  - { offsetInCU: 0x6E82, offset: 0x6E82, size: 0x8, addend: 0x0, symName: __ZNSt3__19use_facetB8ue170006INS_5ctypeIcEEEERKT_RKNS_6localeE, symObjAddr: 0x1F6C, symBinAddr: 0x100004DBC, symSize: 0x2C }
  - { offsetInCU: 0x7260, offset: 0x7260, size: 0x8, addend: 0x0, symName: __ZNSt3__118__constexpr_strlenB8ue170006EPKc, symObjAddr: 0x2004, symBinAddr: 0x100004E54, symSize: 0x24 }
  - { offsetInCU: 0x728C, offset: 0x728C, size: 0x8, addend: 0x0, symName: __ZNSt3__17getlineB8ue170006IcNS_11char_traitsIcEENS_9allocatorIcEEEERNS_13basic_istreamIT_T0_EES9_RNS_12basic_stringIS6_S7_T1_EES6_, symObjAddr: 0x20D8, symBinAddr: 0x100004F28, symSize: 0x238 }
  - { offsetInCU: 0x7D0B, offset: 0x7D0B, size: 0x8, addend: 0x0, symName: __ZNSt3__112__to_addressB8ue170006I6TicketEEPT_S3_, symObjAddr: 0x2D10, symBinAddr: 0x100005B60, symSize: 0x14 }
  - { offsetInCU: 0x7D40, offset: 0x7D40, size: 0x8, addend: 0x0, symName: __ZNSt3__119__libcpp_deallocateB8ue170006EPvmm, symObjAddr: 0x2E2C, symBinAddr: 0x100005C7C, symSize: 0x30 }
  - { offsetInCU: 0x7D88, offset: 0x7D88, size: 0x8, addend: 0x0, symName: __ZNSt3__127__do_deallocate_handle_sizeB8ue170006IJEEEvPvmDpT_, symObjAddr: 0x2E5C, symBinAddr: 0x100005CAC, symSize: 0x28 }
  - { offsetInCU: 0x7DC6, offset: 0x7DC6, size: 0x8, addend: 0x0, symName: __ZNSt3__124__libcpp_operator_deleteB8ue170006IJPvEEEvDpT_, symObjAddr: 0x2E84, symBinAddr: 0x100005CD4, symSize: 0x24 }
  - { offsetInCU: 0x7DFB, offset: 0x7DFB, size: 0x8, addend: 0x0, symName: __ZNSt3__13maxB8ue170006ImEERKT_S3_S3_, symObjAddr: 0x35DC, symBinAddr: 0x10000642C, symSize: 0x2C }
  - { offsetInCU: 0x7E3E, offset: 0x7E3E, size: 0x8, addend: 0x0, symName: __ZNSt3__13minB8ue170006ImEERKT_S3_S3_, symObjAddr: 0x3608, symBinAddr: 0x100006458, symSize: 0x2C }
  - { offsetInCU: 0x7E81, offset: 0x7E81, size: 0x8, addend: 0x0, symName: __ZNSt3__13minB8ue170006ImNS_6__lessIvvEEEERKT_S5_S5_T0_, symObjAddr: 0x3680, symBinAddr: 0x1000064D0, symSize: 0x54 }
  - { offsetInCU: 0x7F20, offset: 0x7F20, size: 0x8, addend: 0x0, symName: __ZNSt3__120__throw_length_errorB8ue170006EPKc, symObjAddr: 0x3754, symBinAddr: 0x1000065A4, symSize: 0x64 }
  - { offsetInCU: 0x7F4A, offset: 0x7F4A, size: 0x8, addend: 0x0, symName: __ZNSt3__13maxB8ue170006ImNS_6__lessIvvEEEERKT_S5_S5_T0_, symObjAddr: 0x3838, symBinAddr: 0x100006688, symSize: 0x54 }
  - { offsetInCU: 0x7FA4, offset: 0x7FA4, size: 0x8, addend: 0x0, symName: __ZNSt3__119__allocate_at_leastB8ue170006INS_9allocatorI6TicketEEEENS_19__allocation_resultINS_16allocator_traitsIT_E7pointerEEERS6_m, symObjAddr: 0x399C, symBinAddr: 0x1000067EC, symSize: 0x40 }
  - { offsetInCU: 0x7FE7, offset: 0x7FE7, size: 0x8, addend: 0x0, symName: __ZNSt3__142__uninitialized_allocator_move_if_noexceptB8ue170006INS_9allocatorI6TicketEENS_16reverse_iteratorIPS2_EES6_S6_EET2_RT_T0_T1_S7_, symObjAddr: 0x3B7C, symBinAddr: 0x1000069CC, symSize: 0x134 }
  - { offsetInCU: 0x8087, offset: 0x8087, size: 0x8, addend: 0x0, symName: __ZNSt3__14swapB8ue170006IP6TicketEEvRT_S4_, symObjAddr: 0x3CFC, symBinAddr: 0x100006B4C, symSize: 0x3C }
  - { offsetInCU: 0x80D8, offset: 0x80D8, size: 0x8, addend: 0x0, symName: __ZNSt3__122__make_exception_guardB8ue170006INS_29_AllocatorDestroyRangeReverseINS_9allocatorI6TicketEENS_16reverse_iteratorIPS3_EEEEEENS_28__exception_guard_exceptionsIT_EESA_, symObjAddr: 0x3DE4, symBinAddr: 0x100006C34, symSize: 0x4C }
  - { offsetInCU: 0x810E, offset: 0x810E, size: 0x8, addend: 0x0, symName: __ZNSt3__1neB8ue170006IP6TicketS2_EEbRKNS_16reverse_iteratorIT_EERKNS3_IT0_EE, symObjAddr: 0x3E74, symBinAddr: 0x100006CC4, symSize: 0x48 }
  - { offsetInCU: 0x815A, offset: 0x815A, size: 0x8, addend: 0x0, symName: __ZNSt3__112__to_addressB8ue170006INS_16reverse_iteratorIP6TicketEEvEEu7__decayIDTclsr19__to_address_helperIT_EE6__callclsr3stdE7declvalIRKS5_EEEEES7_, symObjAddr: 0x3EBC, symBinAddr: 0x100006D0C, symSize: 0x24 }
  - { offsetInCU: 0x81B9, offset: 0x81B9, size: 0x8, addend: 0x0, symName: __ZNSt3__119__allocator_destroyB8ue170006INS_9allocatorI6TicketEENS_16reverse_iteratorINS4_IPS2_EEEES7_EEvRT_T0_T1_, symObjAddr: 0x4178, symBinAddr: 0x100006FC8, symSize: 0x70 }
  - { offsetInCU: 0x821E, offset: 0x821E, size: 0x8, addend: 0x0, symName: __ZNSt3__1neB8ue170006INS_16reverse_iteratorIP6TicketEES4_EEbRKNS1_IT_EERKNS1_IT0_EE, symObjAddr: 0x4224, symBinAddr: 0x100007074, symSize: 0x60 }
  - { offsetInCU: 0x826A, offset: 0x826A, size: 0x8, addend: 0x0, symName: __ZNSt3__112__to_addressB8ue170006INS_16reverse_iteratorINS1_IP6TicketEEEEvEEu7__decayIDTclsr19__to_address_helperIT_EE6__callclsr3stdE7declvalIRKS6_EEEEES8_, symObjAddr: 0x4284, symBinAddr: 0x1000070D4, symSize: 0x24 }
  - { offsetInCU: 0x82C9, offset: 0x82C9, size: 0x8, addend: 0x0, symName: __ZNSt3__1eqB8ue170006IP6TicketEEbRKNS_11__wrap_iterIT_EES7_, symObjAddr: 0x468C, symBinAddr: 0x1000074DC, symSize: 0x48 }
  - { offsetInCU: 0x84B9, offset: 0x84B9, size: 0x8, addend: 0x0, symName: __ZSt28__throw_bad_array_new_lengthB8ue170006v, symObjAddr: 0x1500, symBinAddr: 0x100004350, symSize: 0x34 }
  - { offsetInCU: 0x868F, offset: 0x868F, size: 0x8, addend: 0x0, symName: __ZN6Ticket15uniqueIDCounterE, symObjAddr: 0x4A6C, symBinAddr: 0x10000C000, symSize: 0x0 }
  - { offsetInCU: 0x8A7A, offset: 0x8A7A, size: 0x8, addend: 0x0, symName: __ZNSt3__16vectorI6TicketNS_9allocatorIS1_EEE26__swap_out_circular_bufferERNS_14__split_bufferIS1_RS3_EE, symObjAddr: 0x3410, symBinAddr: 0x100006260, symSize: 0x110 }
  - { offsetInCU: 0xADB5, offset: 0xADB5, size: 0x8, addend: 0x0, symName: _main, symObjAddr: 0x0, symBinAddr: 0x100002E50, symSize: 0x4A4 }
  - { offsetInCU: 0xAFB1, offset: 0xAFB1, size: 0x8, addend: 0x0, symName: __ZN13EventLocationC1Eiii, symObjAddr: 0x4EC, symBinAddr: 0x10000333C, symSize: 0x44 }
  - { offsetInCU: 0xB004, offset: 0xB004, size: 0x8, addend: 0x0, symName: __ZNSt3__111char_traitsIcE3eofB8ue170006Ev, symObjAddr: 0x530, symBinAddr: 0x100003380, symSize: 0x8 }
  - { offsetInCU: 0xB018, offset: 0xB018, size: 0x8, addend: 0x0, symName: __ZNSt3__112basic_stringIcNS_11char_traitsIcEENS_9allocatorIcEEEC1B8ue170006Ev, symObjAddr: 0x538, symBinAddr: 0x100003388, symSize: 0x2C }
  - { offsetInCU: 0xB0E9, offset: 0xB0E9, size: 0x8, addend: 0x0, symName: __ZN5EventC1ERKNSt3__112basic_stringIcNS0_11char_traitsIcEENS0_9allocatorIcEEEES8_S8_, symObjAddr: 0x8D0, symBinAddr: 0x100003720, symSize: 0x44 }
  - { offsetInCU: 0xB13C, offset: 0xB13C, size: 0x8, addend: 0x0, symName: __ZNSt3__16vectorI6TicketNS_9allocatorIS1_EEEC1B8ue170006Ev, symObjAddr: 0x914, symBinAddr: 0x100003764, symSize: 0x2C }
  - { offsetInCU: 0xB165, offset: 0xB165, size: 0x8, addend: 0x0, symName: __ZNK13EventLocation11GetMaxSeatsEv, symObjAddr: 0x940, symBinAddr: 0x100003790, symSize: 0x18 }
  - { offsetInCU: 0xB18A, offset: 0xB18A, size: 0x8, addend: 0x0, symName: __ZN6TicketC1EiRKNSt3__112basic_stringIcNS0_11char_traitsIcEENS0_9allocatorIcEEEEi, symObjAddr: 0x958, symBinAddr: 0x1000037A8, symSize: 0x44 }
  - { offsetInCU: 0xB1DC, offset: 0xB1DC, size: 0x8, addend: 0x0, symName: __ZNSt3__16vectorI6TicketNS_9allocatorIS1_EEE9push_backB8ue170006ERKS1_, symObjAddr: 0x99C, symBinAddr: 0x1000037EC, symSize: 0x6C }
  - { offsetInCU: 0xB212, offset: 0xB212, size: 0x8, addend: 0x0, symName: __ZNK6Ticket11GetUniqueIDEv, symObjAddr: 0xA54, symBinAddr: 0x1000038A4, symSize: 0x18 }
  - { offsetInCU: 0xB237, offset: 0xB237, size: 0x8, addend: 0x0, symName: __ZN6TicketD1Ev, symObjAddr: 0xA6C, symBinAddr: 0x1000038BC, symSize: 0x2C }
  - { offsetInCU: 0xB261, offset: 0xB261, size: 0x8, addend: 0x0, symName: __ZNSt3__16vectorI6TicketNS_9allocatorIS1_EEE5beginB8ue170006Ev, symObjAddr: 0xAA4, symBinAddr: 0x1000038F4, symSize: 0x30 }
  - { offsetInCU: 0xB287, offset: 0xB287, size: 0x8, addend: 0x0, symName: __ZNSt3__16vectorI6TicketNS_9allocatorIS1_EEE3endB8ue170006Ev, symObjAddr: 0xAD4, symBinAddr: 0x100003924, symSize: 0x30 }
  - { offsetInCU: 0xB2AE, offset: 0xB2AE, size: 0x8, addend: 0x0, symName: __ZNKSt3__111__wrap_iterIP6TicketEdeB8ue170006Ev, symObjAddr: 0xB38, symBinAddr: 0x100003988, symSize: 0x18 }
  - { offsetInCU: 0xB2D3, offset: 0xB2D3, size: 0x8, addend: 0x0, symName: __ZNK6Ticket17DisplayTicketInfoEv, symObjAddr: 0xB50, symBinAddr: 0x1000039A0, symSize: 0xC8 }
  - { offsetInCU: 0xB2F8, offset: 0xB2F8, size: 0x8, addend: 0x0, symName: __ZNSt3__111__wrap_iterIP6TicketEppB8ue170006Ev, symObjAddr: 0xC18, symBinAddr: 0x100003A68, symSize: 0x20 }
  - { offsetInCU: 0xB31D, offset: 0xB31D, size: 0x8, addend: 0x0, symName: __ZNSt3__16vectorI6TicketNS_9allocatorIS1_EEED1B8ue170006Ev, symObjAddr: 0xC38, symBinAddr: 0x100003A88, symSize: 0x2C }
  - { offsetInCU: 0xB346, offset: 0xB346, size: 0x8, addend: 0x0, symName: __ZN5EventD1Ev, symObjAddr: 0xC64, symBinAddr: 0x100003AB4, symSize: 0x2C }
  - { offsetInCU: 0xB371, offset: 0xB371, size: 0x8, addend: 0x0, symName: __ZN13EventLocationC2Eiii, symObjAddr: 0xC90, symBinAddr: 0x100003AE0, symSize: 0x38 }
  - { offsetInCU: 0xB3C4, offset: 0xB3C4, size: 0x8, addend: 0x0, symName: __ZN5EventC2ERKNSt3__112basic_stringIcNS0_11char_traitsIcEENS0_9allocatorIcEEEES8_S8_, symObjAddr: 0xCC8, symBinAddr: 0x100003B18, symSize: 0x104 }
  - { offsetInCU: 0xB417, offset: 0xB417, size: 0x8, addend: 0x0, symName: __ZN6TicketC2EiRKNSt3__112basic_stringIcNS0_11char_traitsIcEENS0_9allocatorIcEEEEi, symObjAddr: 0xDCC, symBinAddr: 0x100003C1C, symSize: 0xE0 }
  - { offsetInCU: 0xB46A, offset: 0xB46A, size: 0x8, addend: 0x0, symName: __ZN6Ticket16GenerateUniqueIDEv, symObjAddr: 0xEAC, symBinAddr: 0x100003CFC, symSize: 0x84 }
  - { offsetInCU: 0xB48F, offset: 0xB48F, size: 0x8, addend: 0x0, symName: __ZN6TicketD2Ev, symObjAddr: 0xF30, symBinAddr: 0x100003D80, symSize: 0x6C }
  - { offsetInCU: 0xB4BA, offset: 0xB4BA, size: 0x8, addend: 0x0, symName: __ZN5EventD2Ev, symObjAddr: 0xF9C, symBinAddr: 0x100003DEC, symSize: 0x98 }
  - { offsetInCU: 0xB4E5, offset: 0xB4E5, size: 0x8, addend: 0x0, symName: __ZNSt3__112basic_stringIcNS_11char_traitsIcEENS_9allocatorIcEEEC2B8ue170006Ev, symObjAddr: 0x1034, symBinAddr: 0x100003E84, symSize: 0x3C }
  - { offsetInCU: 0xB513, offset: 0xB513, size: 0x8, addend: 0x0, symName: __ZNSt3__117__compressed_pairINS_12basic_stringIcNS_11char_traitsIcEENS_9allocatorIcEEE5__repES5_EC1B8ue170006INS_18__default_init_tagESA_EEOT_OT0_, symObjAddr: 0x1070, symBinAddr: 0x100003EC0, symSize: 0x3C }
  - { offsetInCU: 0xB56A, offset: 0xB56A, size: 0x8, addend: 0x0, symName: __ZNSt3__112basic_stringIcNS_11char_traitsIcEENS_9allocatorIcEEE14__default_initB8ue170006Ev, symObjAddr: 0x10AC, symBinAddr: 0x100003EFC, symSize: 0xB0 }
  - { offsetInCU: 0xB5BC, offset: 0xB5BC, size: 0x8, addend: 0x0, symName: __ZNSt3__117__compressed_pairINS_12basic_stringIcNS_11char_traitsIcEENS_9allocatorIcEEE5__repES5_EC2B8ue170006INS_18__default_init_tagESA_EEOT_OT0_, symObjAddr: 0x115C, symBinAddr: 0x100003FAC, symSize: 0x3C }
  - { offsetInCU: 0xB613, offset: 0xB613, size: 0x8, addend: 0x0, symName: __ZNSt3__122__compressed_pair_elemINS_12basic_stringIcNS_11char_traitsIcEENS_9allocatorIcEEE5__repELi0ELb0EEC2B8ue170006ENS_18__default_init_tagE, symObjAddr: 0x1198, symBinAddr: 0x100003FE8, symSize: 0x14 }
  - { offsetInCU: 0xB647, offset: 0xB647, size: 0x8, addend: 0x0, symName: __ZNSt3__122__compressed_pair_elemINS_9allocatorIcEELi1ELb1EEC2B8ue170006ENS_18__default_init_tagE, symObjAddr: 0x11AC, symBinAddr: 0x100003FFC, symSize: 0x2C }
  - { offsetInCU: 0xB67B, offset: 0xB67B, size: 0x8, addend: 0x0, symName: __ZNSt3__19allocatorIcEC2B8ue170006Ev, symObjAddr: 0x11D8, symBinAddr: 0x100004028, symSize: 0x2C }
  - { offsetInCU: 0xB6A4, offset: 0xB6A4, size: 0x8, addend: 0x0, symName: __ZNSt3__116__non_trivial_ifILb1ENS_9allocatorIcEEEC2B8ue170006Ev, symObjAddr: 0x1204, symBinAddr: 0x100004054, symSize: 0x14 }
  - { offsetInCU: 0xB6CD, offset: 0xB6CD, size: 0x8, addend: 0x0, symName: __ZNSt3__117__compressed_pairINS_12basic_stringIcNS_11char_traitsIcEENS_9allocatorIcEEE5__repES5_E5firstB8ue170006Ev, symObjAddr: 0x1218, symBinAddr: 0x100004068, symSize: 0x24 }
  - { offsetInCU: 0xB6F2, offset: 0xB6F2, size: 0x8, addend: 0x0, symName: __ZNSt3__112basic_stringIcNS_11char_traitsIcEENS_9allocatorIcEEE11__recommendB8ue170006Em, symObjAddr: 0x1248, symBinAddr: 0x100004098, symSize: 0x9C }
  - { offsetInCU: 0xB725, offset: 0xB725, size: 0x8, addend: 0x0, symName: __ZNSt3__116allocator_traitsINS_9allocatorIcEEE8allocateB8ue170006ERS2_m, symObjAddr: 0x12E4, symBinAddr: 0x100004134, symSize: 0x2C }
  - { offsetInCU: 0xB758, offset: 0xB758, size: 0x8, addend: 0x0, symName: __ZNSt3__112basic_stringIcNS_11char_traitsIcEENS_9allocatorIcEEE7__allocB8ue170006Ev, symObjAddr: 0x1310, symBinAddr: 0x100004160, symSize: 0x24 }
  - { offsetInCU: 0xB77D, offset: 0xB77D, size: 0x8, addend: 0x0, symName: __ZNSt3__112basic_stringIcNS_11char_traitsIcEENS_9allocatorIcEEE16__begin_lifetimeB8ue170006EPcm, symObjAddr: 0x1334, symBinAddr: 0x100004184, symSize: 0x14 }
  - { offsetInCU: 0xB7B0, offset: 0xB7B0, size: 0x8, addend: 0x0, symName: __ZNSt3__112basic_stringIcNS_11char_traitsIcEENS_9allocatorIcEEE18__set_long_pointerB8ue170006EPc, symObjAddr: 0x1348, symBinAddr: 0x100004198, symSize: 0x38 }
  - { offsetInCU: 0xB7E4, offset: 0xB7E4, size: 0x8, addend: 0x0, symName: __ZNSt3__112basic_stringIcNS_11char_traitsIcEENS_9allocatorIcEEE14__set_long_capB8ue170006Em, symObjAddr: 0x1380, symBinAddr: 0x1000041D0, symSize: 0x70 }
  - { offsetInCU: 0xB818, offset: 0xB818, size: 0x8, addend: 0x0, symName: __ZNSt3__112basic_stringIcNS_11char_traitsIcEENS_9allocatorIcEEE15__set_long_sizeB8ue170006Em, symObjAddr: 0x13F0, symBinAddr: 0x100004240, symSize: 0x38 }
  - { offsetInCU: 0xB84C, offset: 0xB84C, size: 0x8, addend: 0x0, symName: __ZNSt3__122__compressed_pair_elemINS_12basic_stringIcNS_11char_traitsIcEENS_9allocatorIcEEE5__repELi0ELb0EE5__getB8ue170006Ev, symObjAddr: 0x1428, symBinAddr: 0x100004278, symSize: 0x14 }
  - { offsetInCU: 0xB871, offset: 0xB871, size: 0x8, addend: 0x0, symName: __ZNSt3__112basic_stringIcNS_11char_traitsIcEENS_9allocatorIcEEE10__align_itB8ue170006ILm16EEEmm, symObjAddr: 0x143C, symBinAddr: 0x10000428C, symSize: 0x1C }
  - { offsetInCU: 0xB89F, offset: 0xB89F, size: 0x8, addend: 0x0, symName: __ZNSt3__19allocatorIcE8allocateB8ue170006Em, symObjAddr: 0x1458, symBinAddr: 0x1000042A8, symSize: 0x84 }
  - { offsetInCU: 0xB8DC, offset: 0xB8DC, size: 0x8, addend: 0x0, symName: __ZNSt3__116allocator_traitsINS_9allocatorIcEEE8max_sizeB8ue170006IS2_vEEmRKS2_, symObjAddr: 0x14DC, symBinAddr: 0x10000432C, symSize: 0x24 }
  - { offsetInCU: 0xB90A, offset: 0xB90A, size: 0x8, addend: 0x0, symName: __ZNKSt3__19allocatorIcE8max_sizeB8ue170006Ev, symObjAddr: 0x155C, symBinAddr: 0x1000043AC, symSize: 0x14 }
  - { offsetInCU: 0xB92F, offset: 0xB92F, size: 0x8, addend: 0x0, symName: __ZNSt3__117__compressed_pairINS_12basic_stringIcNS_11char_traitsIcEENS_9allocatorIcEEE5__repES5_E6secondB8ue170006Ev, symObjAddr: 0x1594, symBinAddr: 0x1000043E4, symSize: 0x24 }
  - { offsetInCU: 0xB954, offset: 0xB954, size: 0x8, addend: 0x0, symName: __ZNSt3__122__compressed_pair_elemINS_9allocatorIcEELi1ELb1EE5__getB8ue170006Ev, symObjAddr: 0x15B8, symBinAddr: 0x100004408, symSize: 0x14 }
  - { offsetInCU: 0xB979, offset: 0xB979, size: 0x8, addend: 0x0, symName: __ZNSt3__111char_traitsIcE6lengthB8ue170006EPKc, symObjAddr: 0x17C0, symBinAddr: 0x100004610, symSize: 0x48 }
  - { offsetInCU: 0xB9BA, offset: 0xB9BA, size: 0x8, addend: 0x0, symName: __ZNKSt3__113basic_ostreamIcNS_11char_traitsIcEEE6sentrycvbB8ue170006Ev, symObjAddr: 0x1808, symBinAddr: 0x100004658, symSize: 0x1C }
  - { offsetInCU: 0xB9DF, offset: 0xB9DF, size: 0x8, addend: 0x0, symName: __ZNSt3__119ostreambuf_iteratorIcNS_11char_traitsIcEEEC1B8ue170006ERNS_13basic_ostreamIcS2_EE, symObjAddr: 0x1A6C, symBinAddr: 0x1000048BC, symSize: 0x34 }
  - { offsetInCU: 0xBA16, offset: 0xBA16, size: 0x8, addend: 0x0, symName: __ZNKSt3__18ios_base5flagsB8ue170006Ev, symObjAddr: 0x1AA0, symBinAddr: 0x1000048F0, symSize: 0x18 }
  - { offsetInCU: 0xBA3C, offset: 0xBA3C, size: 0x8, addend: 0x0, symName: __ZNKSt3__19basic_iosIcNS_11char_traitsIcEEE4fillB8ue170006Ev, symObjAddr: 0x1AB8, symBinAddr: 0x100004908, symSize: 0x64 }
  - { offsetInCU: 0xBA63, offset: 0xBA63, size: 0x8, addend: 0x0, symName: __ZNKSt3__119ostreambuf_iteratorIcNS_11char_traitsIcEEE6failedB8ue170006Ev, symObjAddr: 0x1B1C, symBinAddr: 0x10000496C, symSize: 0x24 }
  - { offsetInCU: 0xBA88, offset: 0xBA88, size: 0x8, addend: 0x0, symName: __ZNSt3__19basic_iosIcNS_11char_traitsIcEEE8setstateB8ue170006Ej, symObjAddr: 0x1B40, symBinAddr: 0x100004990, symSize: 0x2C }
  - { offsetInCU: 0xBABC, offset: 0xBABC, size: 0x8, addend: 0x0, symName: __ZNKSt3__18ios_base5widthB8ue170006Ev, symObjAddr: 0x1B6C, symBinAddr: 0x1000049BC, symSize: 0x18 }
  - { offsetInCU: 0xBAE3, offset: 0xBAE3, size: 0x8, addend: 0x0, symName: __ZNSt3__115basic_streambufIcNS_11char_traitsIcEEE5sputnB8ue170006EPKcl, symObjAddr: 0x1B84, symBinAddr: 0x1000049D4, symSize: 0x3C }
  - { offsetInCU: 0xBB24, offset: 0xBB24, size: 0x8, addend: 0x0, symName: __ZNSt3__112basic_stringIcNS_11char_traitsIcEENS_9allocatorIcEEEC1B8ue170006Emc, symObjAddr: 0x1BC0, symBinAddr: 0x100004A10, symSize: 0x3C }
  - { offsetInCU: 0xBB6B, offset: 0xBB6B, size: 0x8, addend: 0x0, symName: __ZNKSt3__112basic_stringIcNS_11char_traitsIcEENS_9allocatorIcEEE4dataB8ue170006Ev, symObjAddr: 0x1BFC, symBinAddr: 0x100004A4C, symSize: 0x28 }
  - { offsetInCU: 0xBB90, offset: 0xBB90, size: 0x8, addend: 0x0, symName: __ZNSt3__18ios_base5widthB8ue170006El, symObjAddr: 0x1C24, symBinAddr: 0x100004A74, symSize: 0x2C }
  - { offsetInCU: 0xBBD5, offset: 0xBBD5, size: 0x8, addend: 0x0, symName: __ZNSt3__112basic_stringIcNS_11char_traitsIcEENS_9allocatorIcEEEC2B8ue170006Emc, symObjAddr: 0x1C50, symBinAddr: 0x100004AA0, symSize: 0x4C }
  - { offsetInCU: 0xBC1C, offset: 0xBC1C, size: 0x8, addend: 0x0, symName: __ZNKSt3__112basic_stringIcNS_11char_traitsIcEENS_9allocatorIcEEE13__get_pointerB8ue170006Ev, symObjAddr: 0x1CB0, symBinAddr: 0x100004B00, symSize: 0x54 }
  - { offsetInCU: 0xBC41, offset: 0xBC41, size: 0x8, addend: 0x0, symName: __ZNKSt3__112basic_stringIcNS_11char_traitsIcEENS_9allocatorIcEEE9__is_longB8ue170006Ev, symObjAddr: 0x1D04, symBinAddr: 0x100004B54, symSize: 0x74 }
  - { offsetInCU: 0xBC66, offset: 0xBC66, size: 0x8, addend: 0x0, symName: __ZNKSt3__112basic_stringIcNS_11char_traitsIcEENS_9allocatorIcEEE18__get_long_pointerB8ue170006Ev, symObjAddr: 0x1D78, symBinAddr: 0x100004BC8, symSize: 0x28 }
  - { offsetInCU: 0xBC8B, offset: 0xBC8B, size: 0x8, addend: 0x0, symName: __ZNKSt3__112basic_stringIcNS_11char_traitsIcEENS_9allocatorIcEEE19__get_short_pointerB8ue170006Ev, symObjAddr: 0x1DA0, symBinAddr: 0x100004BF0, symSize: 0x28 }
  - { offsetInCU: 0xBCB0, offset: 0xBCB0, size: 0x8, addend: 0x0, symName: __ZNKSt3__117__compressed_pairINS_12basic_stringIcNS_11char_traitsIcEENS_9allocatorIcEEE5__repES5_E5firstB8ue170006Ev, symObjAddr: 0x1DC8, symBinAddr: 0x100004C18, symSize: 0x24 }
  - { offsetInCU: 0xBCD5, offset: 0xBCD5, size: 0x8, addend: 0x0, symName: __ZNKSt3__122__compressed_pair_elemINS_12basic_stringIcNS_11char_traitsIcEENS_9allocatorIcEEE5__repELi0ELb0EE5__getB8ue170006Ev, symObjAddr: 0x1DEC, symBinAddr: 0x100004C3C, symSize: 0x14 }
  - { offsetInCU: 0xBCFA, offset: 0xBCFA, size: 0x8, addend: 0x0, symName: __ZNSt3__114pointer_traitsIPKcE10pointer_toB8ue170006ERS1_, symObjAddr: 0x1E00, symBinAddr: 0x100004C50, symSize: 0x14 }
  - { offsetInCU: 0xBD1D, offset: 0xBD1D, size: 0x8, addend: 0x0, symName: __ZNSt3__119ostreambuf_iteratorIcNS_11char_traitsIcEEEC2B8ue170006ERNS_13basic_ostreamIcS2_EE, symObjAddr: 0x1E14, symBinAddr: 0x100004C64, symSize: 0x68 }
  - { offsetInCU: 0xBD53, offset: 0xBD53, size: 0x8, addend: 0x0, symName: __ZNKSt3__19basic_iosIcNS_11char_traitsIcEEE5rdbufB8ue170006Ev, symObjAddr: 0x1E7C, symBinAddr: 0x100004CCC, symSize: 0x24 }
  - { offsetInCU: 0xBD7A, offset: 0xBD7A, size: 0x8, addend: 0x0, symName: __ZNKSt3__18ios_base5rdbufB8ue170006Ev, symObjAddr: 0x1EA0, symBinAddr: 0x100004CF0, symSize: 0x18 }
  - { offsetInCU: 0xBD9F, offset: 0xBD9F, size: 0x8, addend: 0x0, symName: __ZNSt3__111char_traitsIcE11eq_int_typeB8ue170006Eii, symObjAddr: 0x1EB8, symBinAddr: 0x100004D08, symSize: 0x28 }
  - { offsetInCU: 0xBDD1, offset: 0xBDD1, size: 0x8, addend: 0x0, symName: __ZNKSt3__19basic_iosIcNS_11char_traitsIcEEE5widenB8ue170006Ec, symObjAddr: 0x1EE0, symBinAddr: 0x100004D30, symSize: 0x8C }
  - { offsetInCU: 0xBE34, offset: 0xBE34, size: 0x8, addend: 0x0, symName: __ZNKSt3__15ctypeIcE5widenB8ue170006Ec, symObjAddr: 0x1F98, symBinAddr: 0x100004DE8, symSize: 0x38 }
  - { offsetInCU: 0xBE67, offset: 0xBE67, size: 0x8, addend: 0x0, symName: __ZNSt3__18ios_base8setstateB8ue170006Ej, symObjAddr: 0x1FD0, symBinAddr: 0x100004E20, symSize: 0x34 }
  - { offsetInCU: 0xBE9D, offset: 0xBE9D, size: 0x8, addend: 0x0, symName: __ZNKSt3__112basic_stringIcNS_11char_traitsIcEENS_9allocatorIcEEE4sizeB8ue170006Ev, symObjAddr: 0x2028, symBinAddr: 0x100004E78, symSize: 0x54 }
  - { offsetInCU: 0xBEC2, offset: 0xBEC2, size: 0x8, addend: 0x0, symName: __ZNKSt3__112basic_stringIcNS_11char_traitsIcEENS_9allocatorIcEEE15__get_long_sizeB8ue170006Ev, symObjAddr: 0x207C, symBinAddr: 0x100004ECC, symSize: 0x28 }
  - { offsetInCU: 0xBEE7, offset: 0xBEE7, size: 0x8, addend: 0x0, symName: __ZNKSt3__112basic_stringIcNS_11char_traitsIcEENS_9allocatorIcEEE16__get_short_sizeB8ue170006Ev, symObjAddr: 0x20A4, symBinAddr: 0x100004EF4, symSize: 0x34 }
  - { offsetInCU: 0xBF9E, offset: 0xBF9E, size: 0x8, addend: 0x0, symName: __ZNKSt3__113basic_istreamIcNS_11char_traitsIcEEE6sentrycvbB8ue170006Ev, symObjAddr: 0x2310, symBinAddr: 0x100005160, symSize: 0x1C }
  - { offsetInCU: 0xBFC2, offset: 0xBFC2, size: 0x8, addend: 0x0, symName: __ZNSt3__112basic_stringIcNS_11char_traitsIcEENS_9allocatorIcEEE5clearB8ue170006Ev, symObjAddr: 0x232C, symBinAddr: 0x10000517C, symSize: 0x78 }
  - { offsetInCU: 0xBFE9, offset: 0xBFE9, size: 0x8, addend: 0x0, symName: __ZNSt3__115basic_streambufIcNS_11char_traitsIcEEE6sbumpcB8ue170006Ev, symObjAddr: 0x23A4, symBinAddr: 0x1000051F4, symSize: 0x78 }
  - { offsetInCU: 0xC00E, offset: 0xC00E, size: 0x8, addend: 0x0, symName: __ZNSt3__111char_traitsIcE12to_char_typeB8ue170006Ei, symObjAddr: 0x241C, symBinAddr: 0x10000526C, symSize: 0x18 }
  - { offsetInCU: 0xC031, offset: 0xC031, size: 0x8, addend: 0x0, symName: __ZNSt3__111char_traitsIcE2eqEcc, symObjAddr: 0x2434, symBinAddr: 0x100005284, symSize: 0x28 }
  - { offsetInCU: 0xC062, offset: 0xC062, size: 0x8, addend: 0x0, symName: __ZNKSt3__112basic_stringIcNS_11char_traitsIcEENS_9allocatorIcEEE8max_sizeB8ue170006Ev, symObjAddr: 0x245C, symBinAddr: 0x1000052AC, symSize: 0xAC }
  - { offsetInCU: 0xC0B4, offset: 0xC0B4, size: 0x8, addend: 0x0, symName: __ZNSt3__18ios_base18__setstate_nothrowB8ue170006Ej, symObjAddr: 0x2508, symBinAddr: 0x100005358, symSize: 0x64 }
  - { offsetInCU: 0xC0E8, offset: 0xC0E8, size: 0x8, addend: 0x0, symName: __ZNKSt3__19basic_iosIcNS_11char_traitsIcEEE10exceptionsB8ue170006Ev, symObjAddr: 0x256C, symBinAddr: 0x1000053BC, symSize: 0x24 }
  - { offsetInCU: 0xC10D, offset: 0xC10D, size: 0x8, addend: 0x0, symName: __ZNSt3__111char_traitsIcE6assignB8ue170006ERcRKc, symObjAddr: 0x2590, symBinAddr: 0x1000053E0, symSize: 0x24 }
  - { offsetInCU: 0xC13E, offset: 0xC13E, size: 0x8, addend: 0x0, symName: __ZNSt3__112basic_stringIcNS_11char_traitsIcEENS_9allocatorIcEEE18__get_long_pointerB8ue170006Ev, symObjAddr: 0x25B4, symBinAddr: 0x100005404, symSize: 0x28 }
  - { offsetInCU: 0xC163, offset: 0xC163, size: 0x8, addend: 0x0, symName: __ZNSt3__112basic_stringIcNS_11char_traitsIcEENS_9allocatorIcEEE19__get_short_pointerB8ue170006Ev, symObjAddr: 0x25DC, symBinAddr: 0x10000542C, symSize: 0x28 }
  - { offsetInCU: 0xC188, offset: 0xC188, size: 0x8, addend: 0x0, symName: __ZNSt3__112basic_stringIcNS_11char_traitsIcEENS_9allocatorIcEEE16__set_short_sizeB8ue170006Em, symObjAddr: 0x2604, symBinAddr: 0x100005454, symSize: 0x78 }
  - { offsetInCU: 0xC1BC, offset: 0xC1BC, size: 0x8, addend: 0x0, symName: __ZNSt3__114pointer_traitsIPcE10pointer_toB8ue170006ERc, symObjAddr: 0x267C, symBinAddr: 0x1000054CC, symSize: 0x14 }
  - { offsetInCU: 0xC1DF, offset: 0xC1DF, size: 0x8, addend: 0x0, symName: __ZNSt3__111char_traitsIcE11to_int_typeB8ue170006Ec, symObjAddr: 0x2690, symBinAddr: 0x1000054E0, symSize: 0x14 }
  - { offsetInCU: 0xC203, offset: 0xC203, size: 0x8, addend: 0x0, symName: __ZNKSt3__112basic_stringIcNS_11char_traitsIcEENS_9allocatorIcEEE7__allocB8ue170006Ev, symObjAddr: 0x26A4, symBinAddr: 0x1000054F4, symSize: 0x24 }
  - { offsetInCU: 0xC228, offset: 0xC228, size: 0x8, addend: 0x0, symName: __ZNSt3__114numeric_limitsImE3maxB8ue170006Ev, symObjAddr: 0x26C8, symBinAddr: 0x100005518, symSize: 0x14 }
  - { offsetInCU: 0xC23C, offset: 0xC23C, size: 0x8, addend: 0x0, symName: __ZNKSt3__117__compressed_pairINS_12basic_stringIcNS_11char_traitsIcEENS_9allocatorIcEEE5__repES5_E6secondB8ue170006Ev, symObjAddr: 0x26DC, symBinAddr: 0x10000552C, symSize: 0x24 }
  - { offsetInCU: 0xC261, offset: 0xC261, size: 0x8, addend: 0x0, symName: __ZNKSt3__122__compressed_pair_elemINS_9allocatorIcEELi1ELb1EE5__getB8ue170006Ev, symObjAddr: 0x2700, symBinAddr: 0x100005550, symSize: 0x14 }
  - { offsetInCU: 0xC286, offset: 0xC286, size: 0x8, addend: 0x0, symName: __ZNSt3__123__libcpp_numeric_limitsImLb1EE3maxB8ue170006Ev, symObjAddr: 0x2714, symBinAddr: 0x100005564, symSize: 0x8 }
  - { offsetInCU: 0xC29A, offset: 0xC29A, size: 0x8, addend: 0x0, symName: __ZNKSt3__18ios_base10exceptionsB8ue170006Ev, symObjAddr: 0x271C, symBinAddr: 0x10000556C, symSize: 0x18 }
  - { offsetInCU: 0xC2C1, offset: 0xC2C1, size: 0x8, addend: 0x0, symName: __ZNSt3__114numeric_limitsIlE3maxB8ue170006Ev, symObjAddr: 0x2734, symBinAddr: 0x100005584, symSize: 0x14 }
  - { offsetInCU: 0xC2D5, offset: 0xC2D5, size: 0x8, addend: 0x0, symName: __ZNSt3__115basic_streambufIcNS_11char_traitsIcEEE5sgetcB8ue170006Ev, symObjAddr: 0x2748, symBinAddr: 0x100005598, symSize: 0x70 }
  - { offsetInCU: 0xC2FA, offset: 0xC2FA, size: 0x8, addend: 0x0, symName: __ZNKSt3__15ctypeIcE2isB8ue170006Ejc, symObjAddr: 0x27B8, symBinAddr: 0x100005608, symSize: 0x7C }
  - { offsetInCU: 0xC33D, offset: 0xC33D, size: 0x8, addend: 0x0, symName: __ZNSt3__123__libcpp_numeric_limitsIlLb1EE3maxB8ue170006Ev, symObjAddr: 0x2834, symBinAddr: 0x100005684, symSize: 0x8 }
  - { offsetInCU: 0xC350, offset: 0xC350, size: 0x8, addend: 0x0, symName: __Z7isasciii, symObjAddr: 0x283C, symBinAddr: 0x10000568C, symSize: 0x24 }
  - { offsetInCU: 0xC37D, offset: 0xC37D, size: 0x8, addend: 0x0, symName: __ZNSt3__16vectorI6TicketNS_9allocatorIS1_EEEC2B8ue170006Ev, symObjAddr: 0x2860, symBinAddr: 0x1000056B0, symSize: 0x44 }
  - { offsetInCU: 0xC3AB, offset: 0xC3AB, size: 0x8, addend: 0x0, symName: __ZNSt3__117__compressed_pairIP6TicketNS_9allocatorIS1_EEEC1B8ue170006IDnNS_18__default_init_tagEEEOT_OT0_, symObjAddr: 0x28A4, symBinAddr: 0x1000056F4, symSize: 0x3C }
  - { offsetInCU: 0xC402, offset: 0xC402, size: 0x8, addend: 0x0, symName: __ZNSt3__117__compressed_pairIP6TicketNS_9allocatorIS1_EEEC2B8ue170006IDnNS_18__default_init_tagEEEOT_OT0_, symObjAddr: 0x28E0, symBinAddr: 0x100005730, symSize: 0x40 }
  - { offsetInCU: 0xC459, offset: 0xC459, size: 0x8, addend: 0x0, symName: __ZNSt3__122__compressed_pair_elemIP6TicketLi0ELb0EEC2B8ue170006IDnvEEOT_, symObjAddr: 0x2920, symBinAddr: 0x100005770, symSize: 0x1C }
  - { offsetInCU: 0xC49A, offset: 0xC49A, size: 0x8, addend: 0x0, symName: __ZNSt3__122__compressed_pair_elemINS_9allocatorI6TicketEELi1ELb1EEC2B8ue170006ENS_18__default_init_tagE, symObjAddr: 0x293C, symBinAddr: 0x10000578C, symSize: 0x2C }
  - { offsetInCU: 0xC4CE, offset: 0xC4CE, size: 0x8, addend: 0x0, symName: __ZNSt3__19allocatorI6TicketEC2B8ue170006Ev, symObjAddr: 0x2968, symBinAddr: 0x1000057B8, symSize: 0x2C }
  - { offsetInCU: 0xC4F7, offset: 0xC4F7, size: 0x8, addend: 0x0, symName: __ZNSt3__116__non_trivial_ifILb1ENS_9allocatorI6TicketEEEC2B8ue170006Ev, symObjAddr: 0x2994, symBinAddr: 0x1000057E4, symSize: 0x14 }
  - { offsetInCU: 0xC520, offset: 0xC520, size: 0x8, addend: 0x0, symName: __ZNSt3__16vectorI6TicketNS_9allocatorIS1_EEED2B8ue170006Ev, symObjAddr: 0x29A8, symBinAddr: 0x1000057F8, symSize: 0x3C }
  - { offsetInCU: 0xC549, offset: 0xC549, size: 0x8, addend: 0x0, symName: __ZNSt3__16vectorI6TicketNS_9allocatorIS1_EEE16__destroy_vectorC1B8ue170006ERS4_, symObjAddr: 0x29E4, symBinAddr: 0x100005834, symSize: 0x34 }
  - { offsetInCU: 0xC581, offset: 0xC581, size: 0x8, addend: 0x0, symName: __ZNSt3__16vectorI6TicketNS_9allocatorIS1_EEE16__destroy_vectorclB8ue170006Ev, symObjAddr: 0x2A18, symBinAddr: 0x100005868, symSize: 0x90 }
  - { offsetInCU: 0xC5A6, offset: 0xC5A6, size: 0x8, addend: 0x0, symName: __ZNSt3__16vectorI6TicketNS_9allocatorIS1_EEE16__destroy_vectorC2B8ue170006ERS4_, symObjAddr: 0x2AA8, symBinAddr: 0x1000058F8, symSize: 0x20 }
  - { offsetInCU: 0xC5DE, offset: 0xC5DE, size: 0x8, addend: 0x0, symName: __ZNSt3__16vectorI6TicketNS_9allocatorIS1_EEE7__clearB8ue170006Ev, symObjAddr: 0x2AC8, symBinAddr: 0x100005918, symSize: 0x28 }
  - { offsetInCU: 0xC603, offset: 0xC603, size: 0x8, addend: 0x0, symName: __ZNKSt3__16vectorI6TicketNS_9allocatorIS1_EEE17__annotate_deleteB8ue170006Ev, symObjAddr: 0x2AF0, symBinAddr: 0x100005940, symSize: 0xB8 }
  - { offsetInCU: 0xC628, offset: 0xC628, size: 0x8, addend: 0x0, symName: __ZNSt3__116allocator_traitsINS_9allocatorI6TicketEEE10deallocateB8ue170006ERS3_PS2_m, symObjAddr: 0x2BA8, symBinAddr: 0x1000059F8, symSize: 0x34 }
  - { offsetInCU: 0xC66A, offset: 0xC66A, size: 0x8, addend: 0x0, symName: __ZNSt3__16vectorI6TicketNS_9allocatorIS1_EEE7__allocB8ue170006Ev, symObjAddr: 0x2BDC, symBinAddr: 0x100005A2C, symSize: 0x28 }
  - { offsetInCU: 0xC68F, offset: 0xC68F, size: 0x8, addend: 0x0, symName: __ZNKSt3__16vectorI6TicketNS_9allocatorIS1_EEE8capacityB8ue170006Ev, symObjAddr: 0x2C04, symBinAddr: 0x100005A54, symSize: 0x40 }
  - { offsetInCU: 0xC6B4, offset: 0xC6B4, size: 0x8, addend: 0x0, symName: __ZNSt3__16vectorI6TicketNS_9allocatorIS1_EEE22__base_destruct_at_endB8ue170006EPS1_, symObjAddr: 0x2C44, symBinAddr: 0x100005A94, symSize: 0xA0 }
  - { offsetInCU: 0xC6F7, offset: 0xC6F7, size: 0x8, addend: 0x0, symName: __ZNSt3__116allocator_traitsINS_9allocatorI6TicketEEE7destroyB8ue170006IS2_vEEvRS3_PT_, symObjAddr: 0x2CE4, symBinAddr: 0x100005B34, symSize: 0x2C }
  - { offsetInCU: 0xC734, offset: 0xC734, size: 0x8, addend: 0x0, symName: __ZNSt3__19allocatorI6TicketE7destroyB8ue170006EPS1_, symObjAddr: 0x2D24, symBinAddr: 0x100005B74, symSize: 0x28 }
  - { offsetInCU: 0xC767, offset: 0xC767, size: 0x8, addend: 0x0, symName: __ZNKSt3__16vectorI6TicketNS_9allocatorIS1_EEE31__annotate_contiguous_containerB8ue170006EPKvS6_S6_S6_, symObjAddr: 0x2D4C, symBinAddr: 0x100005B9C, symSize: 0x20 }
  - { offsetInCU: 0xC7BC, offset: 0xC7BC, size: 0x8, addend: 0x0, symName: __ZNKSt3__16vectorI6TicketNS_9allocatorIS1_EEE4dataB8ue170006Ev, symObjAddr: 0x2D6C, symBinAddr: 0x100005BBC, symSize: 0x28 }
  - { offsetInCU: 0xC7E1, offset: 0xC7E1, size: 0x8, addend: 0x0, symName: __ZNKSt3__16vectorI6TicketNS_9allocatorIS1_EEE4sizeB8ue170006Ev, symObjAddr: 0x2D94, symBinAddr: 0x100005BE4, symSize: 0x28 }
  - { offsetInCU: 0xC806, offset: 0xC806, size: 0x8, addend: 0x0, symName: __ZNSt3__19allocatorI6TicketE10deallocateB8ue170006EPS1_m, symObjAddr: 0x2DBC, symBinAddr: 0x100005C0C, symSize: 0x70 }
  - { offsetInCU: 0xC847, offset: 0xC847, size: 0x8, addend: 0x0, symName: __ZNSt3__117__compressed_pairIP6TicketNS_9allocatorIS1_EEE6secondB8ue170006Ev, symObjAddr: 0x2EA8, symBinAddr: 0x100005CF8, symSize: 0x24 }
  - { offsetInCU: 0xC86C, offset: 0xC86C, size: 0x8, addend: 0x0, symName: __ZNSt3__122__compressed_pair_elemINS_9allocatorI6TicketEELi1ELb1EE5__getB8ue170006Ev, symObjAddr: 0x2ECC, symBinAddr: 0x100005D1C, symSize: 0x14 }
  - { offsetInCU: 0xC891, offset: 0xC891, size: 0x8, addend: 0x0, symName: __ZNKSt3__16vectorI6TicketNS_9allocatorIS1_EEE9__end_capB8ue170006Ev, symObjAddr: 0x2EE0, symBinAddr: 0x100005D30, symSize: 0x28 }
  - { offsetInCU: 0xC8B6, offset: 0xC8B6, size: 0x8, addend: 0x0, symName: __ZNKSt3__117__compressed_pairIP6TicketNS_9allocatorIS1_EEE5firstB8ue170006Ev, symObjAddr: 0x2F08, symBinAddr: 0x100005D58, symSize: 0x24 }
  - { offsetInCU: 0xC8DB, offset: 0xC8DB, size: 0x8, addend: 0x0, symName: __ZNKSt3__122__compressed_pair_elemIP6TicketLi0ELb0EE5__getB8ue170006Ev, symObjAddr: 0x2F2C, symBinAddr: 0x100005D7C, symSize: 0x14 }
  - { offsetInCU: 0xC900, offset: 0xC900, size: 0x8, addend: 0x0, symName: __ZNSt3__16vectorI6TicketNS_9allocatorIS1_EEE9__end_capB8ue170006Ev, symObjAddr: 0x2F40, symBinAddr: 0x100005D90, symSize: 0x28 }
  - { offsetInCU: 0xC925, offset: 0xC925, size: 0x8, addend: 0x0, symName: __ZNSt3__16vectorI6TicketNS_9allocatorIS1_EEE22__construct_one_at_endB8ue170006IJRKS1_EEEvDpOT_, symObjAddr: 0x2F68, symBinAddr: 0x100005DB8, symSize: 0x98 }
  - { offsetInCU: 0xC972, offset: 0xC972, size: 0x8, addend: 0x0, symName: __ZNSt3__16vectorI6TicketNS_9allocatorIS1_EEE21__push_back_slow_pathIRKS1_EEvOT_, symObjAddr: 0x3000, symBinAddr: 0x100005E50, symSize: 0xE0 }
  - { offsetInCU: 0xC9CF, offset: 0xC9CF, size: 0x8, addend: 0x0, symName: __ZNSt3__117__compressed_pairIP6TicketNS_9allocatorIS1_EEE5firstB8ue170006Ev, symObjAddr: 0x30E0, symBinAddr: 0x100005F30, symSize: 0x24 }
  - { offsetInCU: 0xC9F4, offset: 0xC9F4, size: 0x8, addend: 0x0, symName: __ZNSt3__122__compressed_pair_elemIP6TicketLi0ELb0EE5__getB8ue170006Ev, symObjAddr: 0x3104, symBinAddr: 0x100005F54, symSize: 0x14 }
  - { offsetInCU: 0xCA32, offset: 0xCA32, size: 0x8, addend: 0x0, symName: __ZNSt3__16vectorI6TicketNS_9allocatorIS1_EEE21_ConstructTransactionC1B8ue170006ERS4_m, symObjAddr: 0x3118, symBinAddr: 0x100005F68, symSize: 0x3C }
  - { offsetInCU: 0xCA79, offset: 0xCA79, size: 0x8, addend: 0x0, symName: __ZNSt3__116allocator_traitsINS_9allocatorI6TicketEEE9constructB8ue170006IS2_JRKS2_EvEEvRS3_PT_DpOT0_, symObjAddr: 0x3154, symBinAddr: 0x100005FA4, symSize: 0x34 }
  - { offsetInCU: 0xCAD0, offset: 0xCAD0, size: 0x8, addend: 0x0, symName: __ZNSt3__16vectorI6TicketNS_9allocatorIS1_EEE21_ConstructTransactionD1B8ue170006Ev, symObjAddr: 0x3188, symBinAddr: 0x100005FD8, symSize: 0x2C }
  - { offsetInCU: 0xCAF9, offset: 0xCAF9, size: 0x8, addend: 0x0, symName: __ZNSt3__16vectorI6TicketNS_9allocatorIS1_EEE21_ConstructTransactionC2B8ue170006ERS4_m, symObjAddr: 0x31B4, symBinAddr: 0x100006004, symSize: 0x44 }
  - { offsetInCU: 0xCB40, offset: 0xCB40, size: 0x8, addend: 0x0, symName: __ZNSt3__19allocatorI6TicketE9constructB8ue170006IS1_JRKS1_EEEvPT_DpOT0_, symObjAddr: 0x31F8, symBinAddr: 0x100006048, symSize: 0x30 }
  - { offsetInCU: 0xCB95, offset: 0xCB95, size: 0x8, addend: 0x0, symName: __ZN6TicketC1ERKS_, symObjAddr: 0x3228, symBinAddr: 0x100006078, symSize: 0x34 }
  - { offsetInCU: 0xCBC9, offset: 0xCBC9, size: 0x8, addend: 0x0, symName: __ZN6TicketC2ERKS_, symObjAddr: 0x325C, symBinAddr: 0x1000060AC, symSize: 0x9C }
  - { offsetInCU: 0xCBFD, offset: 0xCBFD, size: 0x8, addend: 0x0, symName: __ZNSt3__16vectorI6TicketNS_9allocatorIS1_EEE21_ConstructTransactionD2B8ue170006Ev, symObjAddr: 0x32F8, symBinAddr: 0x100006148, symSize: 0x20 }
  - { offsetInCU: 0xCC25, offset: 0xCC25, size: 0x8, addend: 0x0, symName: __ZNKSt3__16vectorI6TicketNS_9allocatorIS1_EEE11__recommendB8ue170006Em, symObjAddr: 0x3318, symBinAddr: 0x100006168, symSize: 0xB4 }
  - { offsetInCU: 0xCC79, offset: 0xCC79, size: 0x8, addend: 0x0, symName: __ZNSt3__114__split_bufferI6TicketRNS_9allocatorIS1_EEEC1EmmS4_, symObjAddr: 0x33CC, symBinAddr: 0x10000621C, symSize: 0x44 }
  - { offsetInCU: 0xCCCE, offset: 0xCCCE, size: 0x8, addend: 0x0, symName: __ZNSt3__114__split_bufferI6TicketRNS_9allocatorIS1_EEED1Ev, symObjAddr: 0x3520, symBinAddr: 0x100006370, symSize: 0x2C }
  - { offsetInCU: 0xCCF8, offset: 0xCCF8, size: 0x8, addend: 0x0, symName: __ZNKSt3__16vectorI6TicketNS_9allocatorIS1_EEE8max_sizeEv, symObjAddr: 0x354C, symBinAddr: 0x10000639C, symSize: 0x74 }
  - { offsetInCU: 0xCD1F, offset: 0xCD1F, size: 0x8, addend: 0x0, symName: __ZNKSt3__16vectorI6TicketNS_9allocatorIS1_EEE20__throw_length_errorB8ue170006Ev, symObjAddr: 0x35C0, symBinAddr: 0x100006410, symSize: 0x1C }
  - { offsetInCU: 0xCD4E, offset: 0xCD4E, size: 0x8, addend: 0x0, symName: __ZNSt3__116allocator_traitsINS_9allocatorI6TicketEEE8max_sizeB8ue170006IS3_vEEmRKS3_, symObjAddr: 0x3634, symBinAddr: 0x100006484, symSize: 0x24 }
  - { offsetInCU: 0xCD7C, offset: 0xCD7C, size: 0x8, addend: 0x0, symName: __ZNKSt3__16vectorI6TicketNS_9allocatorIS1_EEE7__allocB8ue170006Ev, symObjAddr: 0x3658, symBinAddr: 0x1000064A8, symSize: 0x28 }
  - { offsetInCU: 0xCDB5, offset: 0xCDB5, size: 0x8, addend: 0x0, symName: __ZNKSt3__16__lessIvvEclB8ue170006ImmEEbRKT_RKT0_, symObjAddr: 0x36D4, symBinAddr: 0x100006524, symSize: 0x34 }
  - { offsetInCU: 0xCE08, offset: 0xCE08, size: 0x8, addend: 0x0, symName: __ZNKSt3__19allocatorI6TicketE8max_sizeB8ue170006Ev, symObjAddr: 0x3708, symBinAddr: 0x100006558, symSize: 0x14 }
  - { offsetInCU: 0xCE2D, offset: 0xCE2D, size: 0x8, addend: 0x0, symName: __ZNKSt3__117__compressed_pairIP6TicketNS_9allocatorIS1_EEE6secondB8ue170006Ev, symObjAddr: 0x371C, symBinAddr: 0x10000656C, symSize: 0x24 }
  - { offsetInCU: 0xCE52, offset: 0xCE52, size: 0x8, addend: 0x0, symName: __ZNKSt3__122__compressed_pair_elemINS_9allocatorI6TicketEELi1ELb1EE5__getB8ue170006Ev, symObjAddr: 0x3740, symBinAddr: 0x100006590, symSize: 0x14 }
  - { offsetInCU: 0xCE77, offset: 0xCE77, size: 0x8, addend: 0x0, symName: __ZNSt12length_errorC1B8ue170006EPKc, symObjAddr: 0x37B8, symBinAddr: 0x100006608, symSize: 0x34 }
  - { offsetInCU: 0xCEAE, offset: 0xCEAE, size: 0x8, addend: 0x0, symName: __ZNSt12length_errorC2B8ue170006EPKc, symObjAddr: 0x37EC, symBinAddr: 0x10000663C, symSize: 0x4C }
  - { offsetInCU: 0xCEE5, offset: 0xCEE5, size: 0x8, addend: 0x0, symName: __ZNSt3__114__split_bufferI6TicketRNS_9allocatorIS1_EEEC2EmmS4_, symObjAddr: 0x388C, symBinAddr: 0x1000066DC, symSize: 0xD4 }
  - { offsetInCU: 0xCF58, offset: 0xCF58, size: 0x8, addend: 0x0, symName: __ZNSt3__117__compressed_pairIP6TicketRNS_9allocatorIS1_EEEC1B8ue170006IDnS5_EEOT_OT0_, symObjAddr: 0x3960, symBinAddr: 0x1000067B0, symSize: 0x3C }
  - { offsetInCU: 0xCFAF, offset: 0xCFAF, size: 0x8, addend: 0x0, symName: __ZNSt3__114__split_bufferI6TicketRNS_9allocatorIS1_EEE7__allocB8ue170006Ev, symObjAddr: 0x39DC, symBinAddr: 0x10000682C, symSize: 0x28 }
  - { offsetInCU: 0xCFD4, offset: 0xCFD4, size: 0x8, addend: 0x0, symName: __ZNSt3__114__split_bufferI6TicketRNS_9allocatorIS1_EEE9__end_capB8ue170006Ev, symObjAddr: 0x3A04, symBinAddr: 0x100006854, symSize: 0x28 }
  - { offsetInCU: 0xCFF9, offset: 0xCFF9, size: 0x8, addend: 0x0, symName: __ZNSt3__117__compressed_pairIP6TicketRNS_9allocatorIS1_EEEC2B8ue170006IDnS5_EEOT_OT0_, symObjAddr: 0x3A2C, symBinAddr: 0x10000687C, symSize: 0x48 }
  - { offsetInCU: 0xD050, offset: 0xD050, size: 0x8, addend: 0x0, symName: __ZNSt3__122__compressed_pair_elemIRNS_9allocatorI6TicketEELi1ELb0EEC2B8ue170006IS4_vEEOT_, symObjAddr: 0x3A74, symBinAddr: 0x1000068C4, symSize: 0x20 }
  - { offsetInCU: 0xD091, offset: 0xD091, size: 0x8, addend: 0x0, symName: __ZNSt3__19allocatorI6TicketE8allocateB8ue170006Em, symObjAddr: 0x3A94, symBinAddr: 0x1000068E4, symSize: 0x84 }
  - { offsetInCU: 0xD0C4, offset: 0xD0C4, size: 0x8, addend: 0x0, symName: __ZNSt3__117__compressed_pairIP6TicketRNS_9allocatorIS1_EEE6secondB8ue170006Ev, symObjAddr: 0x3B18, symBinAddr: 0x100006968, symSize: 0x28 }
  - { offsetInCU: 0xD0E9, offset: 0xD0E9, size: 0x8, addend: 0x0, symName: __ZNSt3__122__compressed_pair_elemIRNS_9allocatorI6TicketEELi1ELb0EE5__getB8ue170006Ev, symObjAddr: 0x3B40, symBinAddr: 0x100006990, symSize: 0x18 }
  - { offsetInCU: 0xD10E, offset: 0xD10E, size: 0x8, addend: 0x0, symName: __ZNSt3__117__compressed_pairIP6TicketRNS_9allocatorIS1_EEE5firstB8ue170006Ev, symObjAddr: 0x3B58, symBinAddr: 0x1000069A8, symSize: 0x24 }
  - { offsetInCU: 0xD133, offset: 0xD133, size: 0x8, addend: 0x0, symName: __ZNSt3__116reverse_iteratorIP6TicketEC1B8ue170006ES2_, symObjAddr: 0x3CB0, symBinAddr: 0x100006B00, symSize: 0x34 }
  - { offsetInCU: 0xD16A, offset: 0xD16A, size: 0x8, addend: 0x0, symName: __ZNKSt3__116reverse_iteratorIP6TicketE4baseB8ue170006Ev, symObjAddr: 0x3CE4, symBinAddr: 0x100006B34, symSize: 0x18 }
  - { offsetInCU: 0xD18F, offset: 0xD18F, size: 0x8, addend: 0x0, symName: __ZNKSt3__16vectorI6TicketNS_9allocatorIS1_EEE14__annotate_newB8ue170006Em, symObjAddr: 0x3D38, symBinAddr: 0x100006B88, symSize: 0xAC }
  - { offsetInCU: 0xD1C3, offset: 0xD1C3, size: 0x8, addend: 0x0, symName: __ZNSt3__129_AllocatorDestroyRangeReverseINS_9allocatorI6TicketEENS_16reverse_iteratorIPS2_EEEC1B8ue170006ERS3_RS6_S9_, symObjAddr: 0x3E30, symBinAddr: 0x100006C80, symSize: 0x44 }
  - { offsetInCU: 0xD219, offset: 0xD219, size: 0x8, addend: 0x0, symName: __ZNKSt3__116reverse_iteratorIP6TicketEdeB8ue170006Ev, symObjAddr: 0x3EE0, symBinAddr: 0x100006D30, symSize: 0x28 }
  - { offsetInCU: 0xD24C, offset: 0xD24C, size: 0x8, addend: 0x0, symName: __ZNSt3__116reverse_iteratorIP6TicketEppB8ue170006Ev, symObjAddr: 0x3F08, symBinAddr: 0x100006D58, symSize: 0x20 }
  - { offsetInCU: 0xD271, offset: 0xD271, size: 0x8, addend: 0x0, symName: __ZNSt3__128__exception_guard_exceptionsINS_29_AllocatorDestroyRangeReverseINS_9allocatorI6TicketEENS_16reverse_iteratorIPS3_EEEEE10__completeB8ue170006Ev, symObjAddr: 0x3F28, symBinAddr: 0x100006D78, symSize: 0x1C }
  - { offsetInCU: 0xD296, offset: 0xD296, size: 0x8, addend: 0x0, symName: __ZNSt3__128__exception_guard_exceptionsINS_29_AllocatorDestroyRangeReverseINS_9allocatorI6TicketEENS_16reverse_iteratorIPS3_EEEEED1B8ue170006Ev, symObjAddr: 0x3F44, symBinAddr: 0x100006D94, symSize: 0x2C }
  - { offsetInCU: 0xD2BF, offset: 0xD2BF, size: 0x8, addend: 0x0, symName: __ZNSt3__128__exception_guard_exceptionsINS_29_AllocatorDestroyRangeReverseINS_9allocatorI6TicketEENS_16reverse_iteratorIPS3_EEEEEC1B8ue170006ES8_, symObjAddr: 0x3F70, symBinAddr: 0x100006DC0, symSize: 0x34 }
  - { offsetInCU: 0xD2F7, offset: 0xD2F7, size: 0x8, addend: 0x0, symName: __ZNSt3__128__exception_guard_exceptionsINS_29_AllocatorDestroyRangeReverseINS_9allocatorI6TicketEENS_16reverse_iteratorIPS3_EEEEEC2B8ue170006ES8_, symObjAddr: 0x3FA4, symBinAddr: 0x100006DF4, symSize: 0x30 }
  - { offsetInCU: 0xD32F, offset: 0xD32F, size: 0x8, addend: 0x0, symName: __ZNSt3__129_AllocatorDestroyRangeReverseINS_9allocatorI6TicketEENS_16reverse_iteratorIPS2_EEEC2B8ue170006ERS3_RS6_S9_, symObjAddr: 0x3FD4, symBinAddr: 0x100006E24, symSize: 0x38 }
  - { offsetInCU: 0xD38A, offset: 0xD38A, size: 0x8, addend: 0x0, symName: __ZNSt3__119__to_address_helperINS_16reverse_iteratorIP6TicketEEvE6__callB8ue170006ERKS4_, symObjAddr: 0x400C, symBinAddr: 0x100006E5C, symSize: 0x4C }
  - { offsetInCU: 0xD3AD, offset: 0xD3AD, size: 0x8, addend: 0x0, symName: __ZNKSt3__116reverse_iteratorIP6TicketEptB8ue170006Ev, symObjAddr: 0x4058, symBinAddr: 0x100006EA8, symSize: 0x24 }
  - { offsetInCU: 0xD3D2, offset: 0xD3D2, size: 0x8, addend: 0x0, symName: __ZNSt3__128__exception_guard_exceptionsINS_29_AllocatorDestroyRangeReverseINS_9allocatorI6TicketEENS_16reverse_iteratorIPS3_EEEEED2B8ue170006Ev, symObjAddr: 0x407C, symBinAddr: 0x100006ECC, symSize: 0x48 }
  - { offsetInCU: 0xD3FB, offset: 0xD3FB, size: 0x8, addend: 0x0, symName: __ZNKSt3__129_AllocatorDestroyRangeReverseINS_9allocatorI6TicketEENS_16reverse_iteratorIPS2_EEEclB8ue170006Ev, symObjAddr: 0x40C4, symBinAddr: 0x100006F14, symSize: 0xB4 }
  - { offsetInCU: 0xD421, offset: 0xD421, size: 0x8, addend: 0x0, symName: __ZNSt3__116reverse_iteratorINS0_IP6TicketEEEC1B8ue170006ES3_, symObjAddr: 0x41E8, symBinAddr: 0x100007038, symSize: 0x3C }
  - { offsetInCU: 0xD458, offset: 0xD458, size: 0x8, addend: 0x0, symName: __ZNSt3__116reverse_iteratorINS0_IP6TicketEEEppB8ue170006Ev, symObjAddr: 0x42A8, symBinAddr: 0x1000070F8, symSize: 0x30 }
  - { offsetInCU: 0xD47D, offset: 0xD47D, size: 0x8, addend: 0x0, symName: __ZNKSt3__116reverse_iteratorINS0_IP6TicketEEE4baseB8ue170006Ev, symObjAddr: 0x42D8, symBinAddr: 0x100007128, symSize: 0x24 }
  - { offsetInCU: 0xD4A7, offset: 0xD4A7, size: 0x8, addend: 0x0, symName: __ZNSt3__119__to_address_helperINS_16reverse_iteratorINS1_IP6TicketEEEEvE6__callB8ue170006ERKS5_, symObjAddr: 0x42FC, symBinAddr: 0x10000714C, symSize: 0x4C }
  - { offsetInCU: 0xD4CA, offset: 0xD4CA, size: 0x8, addend: 0x0, symName: __ZNKSt3__116reverse_iteratorINS0_IP6TicketEEEptB8ue170006Ev, symObjAddr: 0x4348, symBinAddr: 0x100007198, symSize: 0x24 }
  - { offsetInCU: 0xD4EF, offset: 0xD4EF, size: 0x8, addend: 0x0, symName: __ZNKSt3__116reverse_iteratorINS0_IP6TicketEEEdeB8ue170006Ev, symObjAddr: 0x436C, symBinAddr: 0x1000071BC, symSize: 0x34 }
  - { offsetInCU: 0xD522, offset: 0xD522, size: 0x8, addend: 0x0, symName: __ZNSt3__116reverse_iteratorIP6TicketEmmB8ue170006Ev, symObjAddr: 0x43A0, symBinAddr: 0x1000071F0, symSize: 0x20 }
  - { offsetInCU: 0xD547, offset: 0xD547, size: 0x8, addend: 0x0, symName: __ZNSt3__116reverse_iteratorINS0_IP6TicketEEEC2B8ue170006ES3_, symObjAddr: 0x43C0, symBinAddr: 0x100007210, symSize: 0x2C }
  - { offsetInCU: 0xD57E, offset: 0xD57E, size: 0x8, addend: 0x0, symName: __ZNSt3__116reverse_iteratorIP6TicketEC2B8ue170006ES2_, symObjAddr: 0x43EC, symBinAddr: 0x10000723C, symSize: 0x28 }
  - { offsetInCU: 0xD5B5, offset: 0xD5B5, size: 0x8, addend: 0x0, symName: __ZNSt3__114__split_bufferI6TicketRNS_9allocatorIS1_EEED2Ev, symObjAddr: 0x4414, symBinAddr: 0x100007264, symSize: 0x80 }
  - { offsetInCU: 0xD5E0, offset: 0xD5E0, size: 0x8, addend: 0x0, symName: __ZNSt3__114__split_bufferI6TicketRNS_9allocatorIS1_EEE5clearB8ue170006Ev, symObjAddr: 0x4494, symBinAddr: 0x1000072E4, symSize: 0x28 }
  - { offsetInCU: 0xD605, offset: 0xD605, size: 0x8, addend: 0x0, symName: __ZNKSt3__114__split_bufferI6TicketRNS_9allocatorIS1_EEE8capacityB8ue170006Ev, symObjAddr: 0x44BC, symBinAddr: 0x10000730C, symSize: 0x40 }
  - { offsetInCU: 0xD62A, offset: 0xD62A, size: 0x8, addend: 0x0, symName: __ZNSt3__114__split_bufferI6TicketRNS_9allocatorIS1_EEE17__destruct_at_endB8ue170006EPS1_, symObjAddr: 0x44FC, symBinAddr: 0x10000734C, symSize: 0x2C }
  - { offsetInCU: 0xD65C, offset: 0xD65C, size: 0x8, addend: 0x0, symName: __ZNSt3__114__split_bufferI6TicketRNS_9allocatorIS1_EEE17__destruct_at_endB8ue170006EPS1_NS_17integral_constantIbLb0EEE, symObjAddr: 0x4528, symBinAddr: 0x100007378, symSize: 0x94 }
  - { offsetInCU: 0xD69C, offset: 0xD69C, size: 0x8, addend: 0x0, symName: __ZNKSt3__114__split_bufferI6TicketRNS_9allocatorIS1_EEE9__end_capB8ue170006Ev, symObjAddr: 0x45BC, symBinAddr: 0x10000740C, symSize: 0x28 }
  - { offsetInCU: 0xD6C1, offset: 0xD6C1, size: 0x8, addend: 0x0, symName: __ZNKSt3__117__compressed_pairIP6TicketRNS_9allocatorIS1_EEE5firstB8ue170006Ev, symObjAddr: 0x45E4, symBinAddr: 0x100007434, symSize: 0x24 }
  - { offsetInCU: 0xD6E6, offset: 0xD6E6, size: 0x8, addend: 0x0, symName: __ZNSt3__16vectorI6TicketNS_9allocatorIS1_EEE11__make_iterB8ue170006EPS1_, symObjAddr: 0x4608, symBinAddr: 0x100007458, symSize: 0x30 }
  - { offsetInCU: 0xD71A, offset: 0xD71A, size: 0x8, addend: 0x0, symName: __ZNSt3__111__wrap_iterIP6TicketEC1B8ue170006ES2_, symObjAddr: 0x4638, symBinAddr: 0x100007488, symSize: 0x34 }
  - { offsetInCU: 0xD751, offset: 0xD751, size: 0x8, addend: 0x0, symName: __ZNSt3__111__wrap_iterIP6TicketEC2B8ue170006ES2_, symObjAddr: 0x466C, symBinAddr: 0x1000074BC, symSize: 0x20 }
  - { offsetInCU: 0xD788, offset: 0xD788, size: 0x8, addend: 0x0, symName: __ZNKSt3__111__wrap_iterIP6TicketE4baseB8ue170006Ev, symObjAddr: 0x46D4, symBinAddr: 0x100007524, symSize: 0x18 }
...
